target datalayout = "e-m:e-p270:32:32-p271:32:32-p272:64:64-i64:64-i128:128-f80:128-n8:16:32:64-S128"
target triple = "x86_64-pc-linux-gnu"

@fname = internal global ptr null, align 8
@flags = internal global i32 0, align 4
@silent = internal global i32 0, align 4
@outfile = internal global ptr null, align 8
@n_indent = internal global i32 0, align 4
@.str.9 = private unnamed_addr constant [3 x i8] c"  \00", align 1
@.str.10 = private unnamed_addr constant [10 x i8] c" %s (%s)\0A\00", align 1
@.str.11 = private unnamed_addr constant [5 x i8] c" %s\0A\00", align 1
@.str.12 = private unnamed_addr constant [6 x i8] c" %7ld\00", align 1

; Function Attrs: nounwind uwtable
define internal void @ipr(i64 noundef %0) #0 {
  %2 = alloca i64, align 8
  store i64 %0, ptr %2, align 8, !tbaa !52
  %3 = load i64, ptr %2, align 8, !tbaa !52
  %4 = call i32 (ptr, ...) @printf(ptr noundef @.str.12, i64 noundef %3)
  ret void
}

; Function Attrs: nounwind uwtable
define internal void @wcp(i32 noundef %0, i32 noundef %1, i32 noundef %2, i32 noundef %3, ptr noundef %4, ptr noundef %5) #0 {
  %7 = alloca i32, align 4
  %8 = alloca i32, align 4
  %9 = alloca i32, align 4
  %10 = alloca i32, align 4
  %11 = alloca ptr, align 8
  %12 = alloca ptr, align 8
  %13 = alloca i32, align 4
  %14 = alloca i32, align 4
  store i32 %0, ptr %7, align 4, !tbaa !4
  store i32 %1, ptr %8, align 4, !tbaa !4
  store i32 %2, ptr %9, align 4, !tbaa !4
  store i32 %3, ptr %10, align 4, !tbaa !4
  store ptr %4, ptr %11, align 8, !tbaa !13
  store ptr %5, ptr %12, align 8, !tbaa !13
  call void @llvm.lifetime.start.p0(i64 4, ptr %13) #10
  %15 = load i32, ptr @silent, align 4, !tbaa !4
  %16 = icmp ne i32 %15, 0
  br i1 %16, label %17, label %18

17:                                               ; preds = %6
  store i32 1, ptr %14, align 4
  br label %68

18:                                               ; preds = %6
  store i32 0, ptr %13, align 4, !tbaa !4
  br label %19

19:                                               ; preds = %26, %18
  %20 = load i32, ptr %13, align 4, !tbaa !4
  %21 = load i32, ptr @n_indent, align 4, !tbaa !4
  %22 = icmp slt i32 %20, %21
  br i1 %22, label %23, label %29

23:                                               ; preds = %19
  %24 = load ptr, ptr @outfile, align 8, !tbaa !15
  %25 = call i32 @fputs(ptr noundef @.str.9, ptr noundef %24)
  br label %26

26:                                               ; preds = %23
  %27 = load i32, ptr %13, align 4, !tbaa !4
  %28 = add nsw i32 %27, 1
  store i32 %28, ptr %13, align 4, !tbaa !4
  br label %19, !llvm.loop !21

29:                                               ; preds = %19
  %30 = load i32, ptr @flags, align 4, !tbaa !4
  %31 = and i32 %30, 1
  %32 = icmp ne i32 %31, 0
  br i1 %32, label %33, label %36

33:                                               ; preds = %29
  %34 = load i32, ptr %7, align 4, !tbaa !4
  %35 = sext i32 %34 to i64
  call void @ipr(i64 noundef %35)
  br label %36

36:                                               ; preds = %33, %29
  %37 = load i32, ptr @flags, align 4, !tbaa !4
  %38 = and i32 %37, 2
  %39 = icmp ne i32 %38, 0
  br i1 %39, label %40, label %43

40:                                               ; preds = %36
  %41 = load i32, ptr %8, align 4, !tbaa !4
  %42 = sext i32 %41 to i64
  call void @ipr(i64 noundef %42)
  br label %43

43:                                               ; preds = %40, %36
  %44 = load i32, ptr @flags, align 4, !tbaa !4
  %45 = and i32 %44, 4
  %46 = icmp ne i32 %45, 0
  br i1 %46, label %47, label %50

47:                                               ; preds = %43
  %48 = load i32, ptr %9, align 4, !tbaa !4
  %49 = sext i32 %48 to i64
  call void @ipr(i64 noundef %49)
  br label %50

50:                                               ; preds = %47, %43
  %51 = load i32, ptr @flags, align 4, !tbaa !4
  %52 = and i32 %51, 8
  %53 = icmp ne i32 %52, 0
  br i1 %53, label %54, label %57

54:                                               ; preds = %50
  %55 = load i32, ptr %10, align 4, !tbaa !4
  %56 = sext i32 %55 to i64
  call void @ipr(i64 noundef %56)
  br label %57

57:                                               ; preds = %54, %50
  %58 = load ptr, ptr @fname, align 8, !tbaa !13
  %59 = icmp ne ptr %58, null
  br i1 %59, label %60, label %64

60:                                               ; preds = %57
  %61 = load ptr, ptr %11, align 8, !tbaa !13
  %62 = load ptr, ptr %12, align 8, !tbaa !13
  %63 = call i32 (ptr, ...) @printf(ptr noundef @.str.10, ptr noundef %61, ptr noundef %62)
  br label %67

64:                                               ; preds = %57
  %65 = load ptr, ptr %11, align 8, !tbaa !13
  %66 = call i32 (ptr, ...) @printf(ptr noundef @.str.11, ptr noundef %65)
  br label %67

67:                                               ; preds = %64, %60
  store i32 0, ptr %14, align 4
  br label %68

68:                                               ; preds = %67, %17
  call void @llvm.lifetime.end.p0(i64 4, ptr %13) #10
  %69 = load i32, ptr %14, align 4
  switch i32 %69, label %71 [
    i32 0, label %70
    i32 1, label %70
  ]

70:                                               ; preds = %68, %68
  ret void

71:                                               ; preds = %68
  unreachable
}