; Function Attrs: nofree nounwind uwtable
define internal fastcc void @wcp(i32 noundef %0, i32 noundef %1, i32 noundef %2, i32 noundef %3, ptr noundef %4, ptr noundef %5) unnamed_addr #5 {
  %.b = load i1, ptr @silent, align 4
  br i1 %.b, label %43, label %.preheader

.preheader:                                       ; preds = %6
  %7 = load i32, ptr @n_indent, align 4, !tbaa !4
  %8 = icmp sgt i32 %7, 0
  br i1 %8, label %.lr.ph, label %._crit_edge

.lr.ph:                                           ; preds = %.preheader, %.lr.ph
  %.012 = phi i32 [ %11, %.lr.ph ], [ 0, %.preheader ]
  %9 = load ptr, ptr @outfile, align 8, !tbaa !10
  %10 = tail call i64 @fwrite(ptr nonnull @.str.9, i64 2, i64 1, ptr %9)
  %11 = add nuw nsw i32 %.012, 1
  %12 = load i32, ptr @n_indent, align 4, !tbaa !4
  %13 = icmp slt i32 %11, %12
  br i1 %13, label %.lr.ph, label %._crit_edge, !llvm.loop !46

._crit_edge:                                      ; preds = %.lr.ph, %.preheader
  %14 = load i32, ptr @flags, align 4, !tbaa !4
  %15 = and i32 %14, 1
  %.not = icmp eq i32 %15, 0
  br i1 %.not, label %19, label %16

16:                                               ; preds = %._crit_edge
  %17 = sext i32 %0 to i64
  %18 = tail call i32 (ptr, ...) @printf(ptr noundef nonnull dereferenceable(1) @.str.12, i64 noundef range(i64 -2147483648, 2147483648) %17)
  %.pre = load i32, ptr @flags, align 4, !tbaa !4
  br label %19

19:                                               ; preds = %16, %._crit_edge
  %20 = phi i32 [ %.pre, %16 ], [ %14, %._crit_edge ]
  %21 = and i32 %20, 2
  %.not8 = icmp eq i32 %21, 0
  br i1 %.not8, label %25, label %22

22:                                               ; preds = %19
  %23 = sext i32 %1 to i64
  %24 = tail call i32 (ptr, ...) @printf(ptr noundef nonnull dereferenceable(1) @.str.12, i64 noundef range(i64 -2147483648, 2147483648) %23)
  %.pre13 = load i32, ptr @flags, align 4, !tbaa !4
  br label %25

25:                                               ; preds = %22, %19
  %26 = phi i32 [ %.pre13, %22 ], [ %20, %19 ]
  %27 = and i32 %26, 4
  %.not9 = icmp eq i32 %27, 0
  br i1 %.not9, label %31, label %28

28:                                               ; preds = %25
  %29 = sext i32 %2 to i64
  %30 = tail call i32 (ptr, ...) @printf(ptr noundef nonnull dereferenceable(1) @.str.12, i64 noundef range(i64 -2147483648, 2147483648) %29)
  %.pre14 = load i32, ptr @flags, align 4, !tbaa !4
  br label %31

31:                                               ; preds = %28, %25
  %32 = phi i32 [ %.pre14, %28 ], [ %26, %25 ]
  %33 = and i32 %32, 8
  %.not10 = icmp eq i32 %33, 0
  br i1 %.not10, label %37, label %34

34:                                               ; preds = %31
  %35 = sext i32 %3 to i64
  %36 = tail call i32 (ptr, ...) @printf(ptr noundef nonnull dereferenceable(1) @.str.12, i64 noundef range(i64 -2147483648, 2147483648) %35)
  br label %37

37:                                               ; preds = %34, %31
  %38 = load ptr, ptr @fname, align 8, !tbaa !15
  %.not11 = icmp eq ptr %38, null
  br i1 %.not11, label %41, label %39

39:                                               ; preds = %37
  %40 = tail call i32 (ptr, ...) @printf(ptr noundef nonnull dereferenceable(1) @.str.10, ptr noundef %4, ptr noundef %5)
  br label %43

41:                                               ; preds = %37
  %42 = tail call i32 (ptr, ...) @printf(ptr noundef nonnull dereferenceable(1) @.str.11, ptr noundef %4)
  br label %43

43:                                               ; preds = %39, %41, %6
  ret void
}